target datalayout = "e-m:e-p270:32:32-p271:32:32-p272:64:64-i64:64-i128:128-f80:128-n8:16:32:64-S128"
target triple = "x86_64-pc-linux-gnu"

; Function Attrs: inlinehint nounwind uwtable
define internal i32 @btoi(i8 noundef zeroext %0) #5 {
  %2 = alloca i8, align 1
  store i8 %0, ptr %2, align 1, !tbaa !10
  %3 = load i8, ptr %2, align 1, !tbaa !10
  %4 = zext i8 %3 to i32
  %5 = sub nsw i32 %4, 48
  ret i32 %5
}

; Function Attrs: inlinehint nounwind uwtable
define internal i32 @GetTime(ptr noundef %0, ptr noundef %1, ptr noundef %2) #5 {
  %4 = alloca i32, align 4
  %5 = alloca ptr, align 8
  %6 = alloca ptr, align 8
  %7 = alloca ptr, align 8
  %8 = alloca i32, align 4
  %9 = alloca i32, align 4
  store ptr %0, ptr %5, align 8, !tbaa !18
  store ptr %1, ptr %6, align 8, !tbaa !7
  store ptr %2, ptr %7, align 8, !tbaa !18
  call void @llvm.lifetime.start.p0(i64 4, ptr %8) #9
  %10 = load ptr, ptr %7, align 8, !tbaa !18
  %11 = load i32, ptr %10, align 4, !tbaa !3
  store i32 %11, ptr %8, align 4, !tbaa !3
  %12 = load ptr, ptr %6, align 8, !tbaa !7
  %13 = load i32, ptr %8, align 4, !tbaa !3
  %14 = sext i32 %13 to i64
  %15 = getelementptr inbounds i8, ptr %12, i64 %14
  %16 = load i8, ptr %15, align 1, !tbaa !10
  %17 = zext i8 %16 to i32
  %18 = icmp slt i32 %17, 48
  br i1 %18, label %45, label %19

19:                                               ; preds = %3
  %20 = load ptr, ptr %6, align 8, !tbaa !7
  %21 = load i32, ptr %8, align 4, !tbaa !3
  %22 = sext i32 %21 to i64
  %23 = getelementptr inbounds i8, ptr %20, i64 %22
  %24 = load i8, ptr %23, align 1, !tbaa !10
  %25 = zext i8 %24 to i32
  %26 = icmp sgt i32 %25, 57
  br i1 %26, label %45, label %27

27:                                               ; preds = %19
  %28 = load ptr, ptr %6, align 8, !tbaa !7
  %29 = load i32, ptr %8, align 4, !tbaa !3
  %30 = add nsw i32 %29, 1
  %31 = sext i32 %30 to i64
  %32 = getelementptr inbounds i8, ptr %28, i64 %31
  %33 = load i8, ptr %32, align 1, !tbaa !10
  %34 = zext i8 %33 to i32
  %35 = icmp slt i32 %34, 48
  br i1 %35, label %45, label %36

36:                                               ; preds = %27
  %37 = load ptr, ptr %6, align 8, !tbaa !7
  %38 = load i32, ptr %8, align 4, !tbaa !3
  %39 = add nsw i32 %38, 1
  %40 = sext i32 %39 to i64
  %41 = getelementptr inbounds i8, ptr %37, i64 %40
  %42 = load i8, ptr %41, align 1, !tbaa !10
  %43 = zext i8 %42 to i32
  %44 = icmp sgt i32 %43, 57
  br i1 %44, label %45, label %46

45:                                               ; preds = %36, %27, %19, %3
  store i32 -140, ptr %4, align 4
  store i32 1, ptr %9, align 4
  br label %70

46:                                               ; preds = %36
  %47 = load ptr, ptr %6, align 8, !tbaa !7
  %48 = load i32, ptr %8, align 4, !tbaa !3
  %49 = add nsw i32 %48, 1
  store i32 %49, ptr %8, align 4, !tbaa !3
  %50 = sext i32 %48 to i64
  %51 = getelementptr inbounds i8, ptr %47, i64 %50
  %52 = load i8, ptr %51, align 1, !tbaa !10
  %53 = call i32 @btoi(i8 noundef zeroext %52)
  %54 = mul nsw i32 %53, 10
  %55 = load ptr, ptr %5, align 8, !tbaa !18
  %56 = load i32, ptr %55, align 4, !tbaa !3
  %57 = add nsw i32 %56, %54
  store i32 %57, ptr %55, align 4, !tbaa !3
  %58 = load ptr, ptr %6, align 8, !tbaa !7
  %59 = load i32, ptr %8, align 4, !tbaa !3
  %60 = add nsw i32 %59, 1
  store i32 %60, ptr %8, align 4, !tbaa !3
  %61 = sext i32 %59 to i64
  %62 = getelementptr inbounds i8, ptr %58, i64 %61
  %63 = load i8, ptr %62, align 1, !tbaa !10
  %64 = call i32 @btoi(i8 noundef zeroext %63)
  %65 = load ptr, ptr %5, align 8, !tbaa !18
  %66 = load i32, ptr %65, align 4, !tbaa !3
  %67 = add nsw i32 %66, %64
  store i32 %67, ptr %65, align 4, !tbaa !3
  %68 = load i32, ptr %8, align 4, !tbaa !3
  %69 = load ptr, ptr %7, align 8, !tbaa !18
  store i32 %68, ptr %69, align 4, !tbaa !3
  store i32 0, ptr %4, align 4
  store i32 1, ptr %9, align 4
  br label %70

70:                                               ; preds = %46, %45
  call void @llvm.lifetime.end.p0(i64 4, ptr %8) #9
  %71 = load i32, ptr %4, align 4
  ret i32 %71
}