; Function Attrs: inlinehint mustprogress nofree norecurse nosync nounwind willreturn memory(argmem: readwrite) uwtable
define internal fastcc range(i32 -140, 1) i32 @GetTime(ptr noundef captures(none) %0, ptr noundef readonly captures(none) %1, ptr noundef captures(none) %2) unnamed_addr #13 {
  %4 = load i32, ptr %2, align 4, !tbaa !22
  %5 = sext i32 %4 to i64
  %6 = getelementptr i8, ptr %1, i64 %5
  %7 = load i8, ptr %6, align 1, !tbaa !3
  %8 = add i8 %7, -58
  %or.cond = icmp ult i8 %8, -10
  br i1 %or.cond, label %24, label %9

9:                                                ; preds = %3
  %10 = getelementptr i8, ptr %6, i64 1
  %11 = load i8, ptr %10, align 1, !tbaa !3
  %12 = add i8 %11, -58
  %or.cond19 = icmp ult i8 %12, -10
  br i1 %or.cond19, label %24, label %13

13:                                               ; preds = %9
  %14 = zext nneg i8 %7 to i32
  %15 = mul nuw nsw i32 %14, 10
  %16 = add nsw i32 %15, -480
  %17 = load i32, ptr %0, align 4, !tbaa !22
  %18 = add nsw i32 %16, %17
  store i32 %18, ptr %0, align 4, !tbaa !22
  %19 = add nsw i32 %4, 2
  %20 = load i8, ptr %10, align 1, !tbaa !3
  %21 = zext i8 %20 to i32
  %22 = add i32 %18, -48
  %23 = add i32 %22, %21
  store i32 %23, ptr %0, align 4, !tbaa !22
  store i32 %19, ptr %2, align 4, !tbaa !22
  br label %24

24:                                               ; preds = %3, %9, %13
  %.0 = phi i32 [ 0, %13 ], [ -140, %9 ], [ -140, %3 ]
  ret i32 %.0
}